target datalayout = "e-m:e-p270:32:32-p271:32:32-p272:64:64-i64:64-i128:128-f80:128-n8:16:32:64-S128"
target triple = "x86_64-pc-linux-gnu"

%struct._zend_module_entry = type { i16, i32, i8, i8, ptr, ptr, ptr, ptr, ptr, ptr, ptr, ptr, ptr, ptr, i64, ptr, ptr, ptr, ptr, i32, i8, ptr, i32, ptr }

@module_request_startup_handlers = internal global ptr null, align 8
@.str.115 = private unnamed_addr constant [39 x i8] c"request_startup() for %s module failed\00", align 1

; Function Attrs: nounwind uwtable
define dso_local void @zend_activate_modules() #0 {
  %1 = alloca ptr, align 8
  %2 = alloca ptr, align 8
  call void @llvm.lifetime.start.p0(i64 8, ptr %1) #21
  %3 = load ptr, ptr @module_request_startup_handlers, align 8, !tbaa !197
  store ptr %3, ptr %1, align 8, !tbaa !197
  br label %4

4:                                                ; preds = %27, %0
  %5 = load ptr, ptr %1, align 8, !tbaa !197
  %6 = load ptr, ptr %5, align 8, !tbaa !173
  %7 = icmp ne ptr %6, null
  br i1 %7, label %8, label %30

8:                                                ; preds = %4
  call void @llvm.lifetime.start.p0(i64 8, ptr %2) #21
  %9 = load ptr, ptr %1, align 8, !tbaa !197
  %10 = load ptr, ptr %9, align 8, !tbaa !173
  store ptr %10, ptr %2, align 8, !tbaa !173
  %11 = load ptr, ptr %2, align 8, !tbaa !173
  %12 = getelementptr inbounds nuw %struct._zend_module_entry, ptr %11, i32 0, i32 10
  %13 = load ptr, ptr %12, align 8, !tbaa !193
  %14 = load ptr, ptr %2, align 8, !tbaa !173
  %15 = getelementptr inbounds nuw %struct._zend_module_entry, ptr %14, i32 0, i32 20
  %16 = load i8, ptr %15, align 4, !tbaa !190
  %17 = zext i8 %16 to i32
  %18 = load ptr, ptr %2, align 8, !tbaa !173
  %19 = getelementptr inbounds nuw %struct._zend_module_entry, ptr %18, i32 0, i32 22
  %20 = load i32, ptr %19, align 8, !tbaa !191
  %21 = call i32 %13(i32 noundef %17, i32 noundef %20)
  %22 = icmp eq i32 %21, -1
  br i1 %22, label %23, label %27

23:                                               ; preds = %8
  %24 = load ptr, ptr %2, align 8, !tbaa !173
  %25 = getelementptr inbounds nuw %struct._zend_module_entry, ptr %24, i32 0, i32 6
  %26 = load ptr, ptr %25, align 8, !tbaa !184
  call void (i32, ptr, ...) @zend_error(i32 noundef 2, ptr noundef @.str.115, ptr noundef %26)
  call void @exit(i32 noundef 1) #27
  unreachable

27:                                               ; preds = %8
  %28 = load ptr, ptr %1, align 8, !tbaa !197
  %29 = getelementptr inbounds nuw ptr, ptr %28, i32 1
  store ptr %29, ptr %1, align 8, !tbaa !197
  call void @llvm.lifetime.end.p0(i64 8, ptr %2) #21
  br label %4

30:                                               ; preds = %4
  call void @llvm.lifetime.end.p0(i64 8, ptr %1) #21
  ret void
}