; Function Attrs: nounwind uwtable
define dso_local void @zend_activate_modules() local_unnamed_addr #2 {
  %1 = load ptr, ptr @module_request_startup_handlers, align 8, !tbaa !201
  %2 = load ptr, ptr %1, align 8, !tbaa !203
  %.not9 = icmp eq ptr %2, null
  br i1 %.not9, label %._crit_edge, label %.lr.ph

3:                                                ; preds = %.lr.ph
  %4 = getelementptr inbounds nuw i8, ptr %.010, i64 8
  %5 = load ptr, ptr %4, align 8, !tbaa !203
  %.not = icmp eq ptr %5, null
  br i1 %.not, label %._crit_edge, label %.lr.ph

.lr.ph:                                           ; preds = %0, %3
  %6 = phi ptr [ %5, %3 ], [ %2, %0 ]
  %.010 = phi ptr [ %4, %3 ], [ %1, %0 ]
  %7 = getelementptr inbounds nuw i8, ptr %6, i64 64
  %8 = load ptr, ptr %7, align 8, !tbaa !197
  %9 = getelementptr inbounds nuw i8, ptr %6, i64 140
  %10 = load i8, ptr %9, align 4, !tbaa !195
  %11 = zext i8 %10 to i32
  %12 = getelementptr inbounds nuw i8, ptr %6, i64 152
  %13 = load i32, ptr %12, align 8, !tbaa !196
  %14 = tail call i32 %8(i32 noundef %11, i32 noundef %13) #34
  %15 = icmp eq i32 %14, -1
  br i1 %15, label %16, label %3

16:                                               ; preds = %.lr.ph
  %17 = getelementptr inbounds nuw i8, ptr %6, i64 32
  %18 = load ptr, ptr %17, align 8, !tbaa !189
  tail call void (i32, ptr, ...) @zend_error(i32 noundef 2, ptr noundef nonnull @.str.115, ptr noundef %18) #34
  tail call void @exit(i32 noundef 1) #40
  unreachable

._crit_edge:                                      ; preds = %3, %0
  ret void
}